target datalayout = "e-m:e-p270:32:32-p271:32:32-p272:64:64-i64:64-i128:128-f80:128-n8:16:32:64-S128"
target triple = "x86_64-pc-linux-gnu"

%struct._zend_executor_globals = type { %struct._zval_struct, %struct._zval_struct, [32 x ptr], ptr, ptr, %struct._zend_array, %struct._zend_array, ptr, i32, i32, ptr, ptr, ptr, ptr, ptr, ptr, i64, ptr, ptr, i32, i32, i64, i32, i32, i32, i8, i8, %struct.zend_atomic_bool_s, %struct.zend_atomic_bool_s, ptr, i64, ptr, ptr, %struct._zend_array, %struct._zend_array, i32, i8, %struct._zval_struct, %struct._zval_struct, %struct._zend_stack, %struct._zend_stack, %struct._zend_stack, ptr, i32, i32, i64, ptr, ptr, ptr, %struct._zend_objects_store, ptr, ptr, ptr, [3 x %struct._zend_op], ptr, i8, i8, i64, i32, i32, ptr, [16 x %struct._HashTableIterator], ptr, %union._zend_function, %struct._zend_op, %struct._zend_array, i64, %struct.zend_get_gc_buffer, ptr, ptr, ptr, i64, i8, i32, ptr, ptr, i64, %struct._zend_call_stack, i64, i64, [6 x ptr] }
%struct.zend_atomic_bool_s = type { i8 }
%struct._zval_struct = type { %union._zend_value, %union.anon, %union.anon.2 }
%union._zend_value = type { i64 }
%union.anon = type { i32 }
%union.anon.2 = type { i32 }
%struct._zend_stack = type { i32, i32, i32, ptr }
%struct._zend_objects_store = type { ptr, i32, i32, i32 }
%struct._HashTableIterator = type { ptr, i32, i32 }
%union._zend_function = type { %struct._zend_op_array }
%struct._zend_op_array = type { i8, [3 x i8], i32, ptr, ptr, ptr, i32, i32, ptr, ptr, ptr, ptr, i32, i32, i32, i32, ptr, ptr, ptr, ptr, ptr, i32, i32, ptr, ptr, ptr, i32, i32, i32, i32, ptr, ptr, [6 x ptr] }
%struct._zend_op = type { ptr, %union._znode_op, %union._znode_op, %union._znode_op, i32, i32, i8, i8, i8, i8 }
%union._znode_op = type { i32 }
%struct._zend_array = type { %struct._zend_refcounted_h, %union.anon.4, i32, %union.anon.6, i32, i32, i32, i32, i64, ptr }
%struct._zend_refcounted_h = type { i32, %union.anon.3 }
%union.anon.3 = type { i32 }
%union.anon.4 = type { i32 }
%union.anon.6 = type { ptr }
%struct.zend_get_gc_buffer = type { ptr, ptr, ptr }
%struct._zend_call_stack = type { ptr, i64 }
%struct._zend_class_entry = type { i8, ptr, %union.anon.8, i32, i32, i32, i32, ptr, ptr, ptr, %struct._zend_array, %struct._zend_array, %struct._zend_array, ptr, ptr, ptr, ptr, ptr, ptr, ptr, ptr, ptr, ptr, ptr, ptr, ptr, ptr, ptr, ptr, ptr, ptr, ptr, %union.anon.9, ptr, ptr, ptr, ptr, i32, i32, %union.anon.10, ptr, ptr, ptr, ptr, i32, ptr, ptr, %union.anon.11 }
%union.anon.8 = type { ptr }
%union.anon.9 = type { ptr }
%union.anon.10 = type { ptr }
%union.anon.11 = type { %struct.anon.12 }
%struct.anon.12 = type { ptr, i32, i32 }
%struct._zend_object = type { %struct._zend_refcounted_h, i32, ptr, ptr, ptr, [1 x %struct._zval_struct] }
%struct._zend_execute_data = type { ptr, ptr, ptr, ptr, %struct._zval_struct, ptr, ptr, ptr, ptr }

@executor_globals = external global %struct._zend_executor_globals, align 8
@zend_ce_parse_error = global ptr null, align 8
@zend_ce_compile_error = global ptr null, align 8
@.str = private unnamed_addr constant [103 x i8] c"/home/dtcxzyw/WorkSpace/Projects/compilers/llvm-opt-benchmark/bench/php/php-src/Zend/zend_exceptions.c\00", align 1
@.str.1 = private unnamed_addr constant [39 x i8] c"Exception thrown without a stack frame\00", align 1
@zend_throw_exception_hook = global ptr null, align 8
@zend_ce_unwind_exit = internal global %struct._zend_class_entry zeroinitializer, align 8
@zend_ce_graceful_exit = internal global %struct._zend_class_entry zeroinitializer, align 8

; Function Attrs: nounwind uwtable
define zeroext i1 @zend_is_graceful_exit(ptr noundef %0) #0 {
  %2 = alloca ptr, align 8
  store ptr %0, ptr %2, align 8
  %3 = load ptr, ptr %2, align 8
  %4 = getelementptr inbounds %struct._zend_object, ptr %3, i32 0, i32 2
  %5 = load ptr, ptr %4, align 8
  %6 = icmp eq ptr %5, @zend_ce_graceful_exit
  ret i1 %6
}

; Function Attrs: nounwind uwtable
define zeroext i1 @zend_is_unwind_exit(ptr noundef %0) #0 {
  %2 = alloca ptr, align 8
  store ptr %0, ptr %2, align 8
  %3 = load ptr, ptr %2, align 8
  %4 = getelementptr inbounds %struct._zend_object, ptr %3, i32 0, i32 2
  %5 = load ptr, ptr %4, align 8
  %6 = icmp eq ptr %5, @zend_ce_unwind_exit
  ret i1 %6
}

; Function Attrs: nounwind uwtable
define void @zend_throw_exception_internal(ptr noundef %0) #0 {
  %2 = alloca ptr, align 8
  %3 = alloca ptr, align 8
  %4 = alloca ptr, align 8
  %5 = alloca ptr, align 8
  %6 = alloca ptr, align 8
  %7 = alloca ptr, align 8
  store ptr %0, ptr %6, align 8
  %8 = load ptr, ptr %6, align 8
  %9 = icmp ne ptr %8, null
  br i1 %9, label %10, label %47

10:                                               ; preds = %1
  %11 = load ptr, ptr getelementptr inbounds (%struct._zend_executor_globals, ptr @executor_globals, i32 0, i32 50), align 8
  store ptr %11, ptr %7, align 8
  %12 = load ptr, ptr %7, align 8
  %13 = icmp ne ptr %12, null
  br i1 %13, label %14, label %39

14:                                               ; preds = %10
  %15 = load ptr, ptr %7, align 8
  %16 = call zeroext i1 @zend_is_unwind_exit(ptr noundef %15)
  br i1 %16, label %17, label %39

17:                                               ; preds = %14
  %18 = load ptr, ptr %6, align 8
  store ptr %18, ptr %5, align 8
  %19 = load ptr, ptr %5, align 8
  store ptr %19, ptr %3, align 8
  %20 = load ptr, ptr %3, align 8
  %21 = load i32, ptr %20, align 4
  %22 = icmp ugt i32 %21, 0
  call void @llvm.assume(i1 %22)
  %23 = load ptr, ptr %3, align 8
  %24 = load i32, ptr %23, align 4
  %25 = add i32 %24, -1
  store i32 %25, ptr %23, align 4
  %26 = icmp eq i32 %25, 0
  br i1 %26, label %27, label %29

27:                                               ; preds = %17
  %28 = load ptr, ptr %5, align 8
  call void @zend_objects_store_del(ptr noundef %28) #12
  br label %38

29:                                               ; preds = %17
  %30 = load ptr, ptr %5, align 8
  %31 = getelementptr inbounds %struct._zend_refcounted_h, ptr %30, i32 0, i32 1
  %32 = load i32, ptr %31, align 4
  %33 = and i32 %32, -1008
  %34 = icmp eq i32 %33, 0
  br i1 %34, label %35, label %37

35:                                               ; preds = %29
  %36 = load ptr, ptr %5, align 8
  call void @gc_possible_root(ptr noundef %36) #12
  br label %37

37:                                               ; preds = %35, %29
  br label %38

38:                                               ; preds = %37, %27
  br label %131

39:                                               ; preds = %14, %10
  %40 = load ptr, ptr %6, align 8
  %41 = load ptr, ptr getelementptr inbounds (%struct._zend_executor_globals, ptr @executor_globals, i32 0, i32 50), align 8
  call void @zend_exception_set_previous(ptr noundef %40, ptr noundef %41)
  %42 = load ptr, ptr %6, align 8
  store ptr %42, ptr getelementptr inbounds (%struct._zend_executor_globals, ptr @executor_globals, i32 0, i32 50), align 8
  %43 = load ptr, ptr %7, align 8
  %44 = icmp ne ptr %43, null
  br i1 %44, label %45, label %46

45:                                               ; preds = %39
  br label %131

46:                                               ; preds = %39
  br label %47

47:                                               ; preds = %46, %1
  %48 = load ptr, ptr getelementptr inbounds (%struct._zend_executor_globals, ptr @executor_globals, i32 0, i32 17), align 8
  %49 = icmp ne ptr %48, null
  br i1 %49, label %93, label %50

50:                                               ; preds = %47
  %51 = load ptr, ptr %6, align 8
  %52 = icmp ne ptr %51, null
  br i1 %52, label %53, label %66

53:                                               ; preds = %50
  %54 = load ptr, ptr %6, align 8
  %55 = getelementptr inbounds %struct._zend_object, ptr %54, i32 0, i32 2
  %56 = load ptr, ptr %55, align 8
  %57 = load ptr, ptr @zend_ce_parse_error, align 8
  %58 = icmp eq ptr %56, %57
  br i1 %58, label %65, label %59

59:                                               ; preds = %53
  %60 = load ptr, ptr %6, align 8
  %61 = getelementptr inbounds %struct._zend_object, ptr %60, i32 0, i32 2
  %62 = load ptr, ptr %61, align 8
  %63 = load ptr, ptr @zend_ce_compile_error, align 8
  %64 = icmp eq ptr %62, %63
  br i1 %64, label %65, label %66

65:                                               ; preds = %59, %53
  br label %131

66:                                               ; preds = %59, %50
  %67 = load ptr, ptr getelementptr inbounds (%struct._zend_executor_globals, ptr @executor_globals, i32 0, i32 50), align 8
  %68 = icmp ne ptr %67, null
  br i1 %68, label %69, label %92

69:                                               ; preds = %66
  store ptr getelementptr inbounds (%struct._zend_executor_globals, ptr @executor_globals, i32 0, i32 38), ptr %4, align 8
  %70 = load ptr, ptr %4, align 8
  %71 = getelementptr inbounds %struct._zval_struct, ptr %70, i32 0, i32 1
  %72 = load i8, ptr %71, align 8
  %73 = zext i8 %72 to i32
  %74 = icmp ne i32 %73, 0
  br i1 %74, label %75, label %88

75:                                               ; preds = %69
  %76 = load ptr, ptr getelementptr inbounds (%struct._zend_executor_globals, ptr @executor_globals, i32 0, i32 50), align 8
  %77 = call zeroext i1 @zend_is_unwind_exit(ptr noundef %76)
  br i1 %77, label %88, label %78

78:                                               ; preds = %75
  %79 = load ptr, ptr getelementptr inbounds (%struct._zend_executor_globals, ptr @executor_globals, i32 0, i32 50), align 8
  %80 = call zeroext i1 @zend_is_graceful_exit(ptr noundef %79)
  br i1 %80, label %88, label %81

81:                                               ; preds = %78
  call void @zend_user_exception_handler()
  %82 = load ptr, ptr getelementptr inbounds (%struct._zend_executor_globals, ptr @executor_globals, i32 0, i32 50), align 8
  %83 = icmp ne ptr %82, null
  br i1 %83, label %84, label %87

84:                                               ; preds = %81
  %85 = load ptr, ptr getelementptr inbounds (%struct._zend_executor_globals, ptr @executor_globals, i32 0, i32 50), align 8
  %86 = call i32 @zend_exception_error(ptr noundef %85, i32 noundef 1)
  br label %87

87:                                               ; preds = %84, %81
  br label %131

88:                                               ; preds = %78, %75, %69
  %89 = load ptr, ptr getelementptr inbounds (%struct._zend_executor_globals, ptr @executor_globals, i32 0, i32 50), align 8
  %90 = call i32 @zend_exception_error(ptr noundef %89, i32 noundef 1)
  br label %91

91:                                               ; preds = %88
  call void @_zend_bailout(ptr noundef @.str, i32 noundef 214) #13
  unreachable

92:                                               ; preds = %66
  call void (i32, ptr, ...) @zend_error_noreturn(i32 noundef 16, ptr noundef @.str.1) #13
  unreachable

93:                                               ; preds = %47
  %94 = load ptr, ptr @zend_throw_exception_hook, align 8
  %95 = icmp ne ptr %94, null
  br i1 %95, label %96, label %99

96:                                               ; preds = %93
  %97 = load ptr, ptr @zend_throw_exception_hook, align 8
  %98 = load ptr, ptr %6, align 8
  call void %97(ptr noundef %98)
  br label %99

99:                                               ; preds = %96, %93
  %100 = load ptr, ptr getelementptr inbounds (%struct._zend_executor_globals, ptr @executor_globals, i32 0, i32 17), align 8
  store ptr %100, ptr %2, align 8
  %101 = load ptr, ptr %2, align 8
  %102 = icmp ne ptr %101, null
  br i1 %102, label %103, label %122

103:                                              ; preds = %99
  %104 = load ptr, ptr %2, align 8
  %105 = getelementptr inbounds %struct._zend_execute_data, ptr %104, i32 0, i32 3
  %106 = load ptr, ptr %105, align 8
  %107 = icmp ne ptr %106, null
  br i1 %107, label %108, label %122

108:                                              ; preds = %103
  %109 = load ptr, ptr %2, align 8
  %110 = getelementptr inbounds %struct._zend_execute_data, ptr %109, i32 0, i32 3
  %111 = load ptr, ptr %110, align 8
  %112 = load i8, ptr %111, align 8
  %113 = zext i8 %112 to i32
  %114 = icmp ne i32 %113, 1
  br i1 %114, label %115, label %122

115:                                              ; preds = %108
  %116 = load ptr, ptr %2, align 8
  %117 = load ptr, ptr %116, align 8
  %118 = getelementptr inbounds %struct._zend_op, ptr %117, i32 0, i32 6
  %119 = load i8, ptr %118, align 4
  %120 = zext i8 %119 to i32
  %121 = icmp eq i32 %120, 149
  br label %122

122:                                              ; preds = %115, %108, %103, %99
  %123 = phi i1 [ true, %108 ], [ true, %103 ], [ true, %99 ], [ %121, %115 ]
  br i1 %123, label %124, label %125

124:                                              ; preds = %122
  br label %131

125:                                              ; preds = %122
  %126 = load ptr, ptr getelementptr inbounds (%struct._zend_executor_globals, ptr @executor_globals, i32 0, i32 17), align 8
  %127 = getelementptr inbounds %struct._zend_execute_data, ptr %126, i32 0, i32 0
  %128 = load ptr, ptr %127, align 8
  store ptr %128, ptr getelementptr inbounds (%struct._zend_executor_globals, ptr @executor_globals, i32 0, i32 52), align 8
  %129 = load ptr, ptr getelementptr inbounds (%struct._zend_executor_globals, ptr @executor_globals, i32 0, i32 17), align 8
  %130 = getelementptr inbounds %struct._zend_execute_data, ptr %129, i32 0, i32 0
  store ptr getelementptr inbounds (%struct._zend_executor_globals, ptr @executor_globals, i32 0, i32 53), ptr %130, align 8
  br label %131

131:                                              ; preds = %125, %124, %87, %65, %45, %38
  ret void
}