; Function Attrs: nounwind uwtable
define void @zend_throw_exception_internal(ptr noundef %0) local_unnamed_addr #0 {
  %.not = icmp eq ptr %0, null
  br i1 %.not, label %21, label %2

2:                                                ; preds = %1
  %3 = load ptr, ptr getelementptr inbounds (%struct._zend_executor_globals, ptr @executor_globals, i64 0, i32 50), align 8
  %.not29 = icmp eq ptr %3, null
  br i1 %.not29, label %.thread, label %4

4:                                                ; preds = %2
  %5 = getelementptr inbounds i8, ptr %3, i64 16
  %6 = load ptr, ptr %5, align 8
  %7 = icmp eq ptr %6, @zend_ce_unwind_exit
  br i1 %7, label %8, label %20

8:                                                ; preds = %4
  %9 = load i32, ptr %0, align 4
  %10 = icmp ne i32 %9, 0
  tail call void @llvm.assume(i1 %10)
  %11 = add i32 %9, -1
  store i32 %11, ptr %0, align 4
  %12 = icmp eq i32 %11, 0
  br i1 %12, label %13, label %14

13:                                               ; preds = %8
  tail call void @zend_objects_store_del(ptr noundef nonnull %0) #15
  br label %.critedge

14:                                               ; preds = %8
  %15 = getelementptr inbounds i8, ptr %0, i64 4
  %16 = load i32, ptr %15, align 4
  %17 = and i32 %16, -1008
  %18 = icmp eq i32 %17, 0
  br i1 %18, label %19, label %.critedge

19:                                               ; preds = %14
  tail call void @gc_possible_root(ptr noundef nonnull %0) #15
  br label %.critedge

20:                                               ; preds = %4
  tail call void @zend_exception_set_previous(ptr noundef nonnull %0, ptr noundef nonnull %3)
  store ptr %0, ptr getelementptr inbounds (%struct._zend_executor_globals, ptr @executor_globals, i64 0, i32 50), align 8
  br label %.critedge

21:                                               ; preds = %1
  %22 = load ptr, ptr getelementptr inbounds (%struct._zend_executor_globals, ptr @executor_globals, i64 0, i32 17), align 8
  %.not30 = icmp eq ptr %22, null
  br i1 %.not30, label %31, label %46

.thread:                                          ; preds = %2
  tail call void @zend_exception_set_previous(ptr noundef nonnull %0, ptr noundef null)
  store ptr %0, ptr getelementptr inbounds (%struct._zend_executor_globals, ptr @executor_globals, i64 0, i32 50), align 8
  %23 = load ptr, ptr getelementptr inbounds (%struct._zend_executor_globals, ptr @executor_globals, i64 0, i32 17), align 8
  %.not3041 = icmp eq ptr %23, null
  br i1 %.not3041, label %24, label %46

24:                                               ; preds = %.thread
  %25 = getelementptr inbounds i8, ptr %0, i64 16
  %26 = load ptr, ptr %25, align 8
  %27 = load ptr, ptr @zend_ce_parse_error, align 8
  %28 = icmp eq ptr %26, %27
  %29 = load ptr, ptr @zend_ce_compile_error, align 8
  %30 = icmp eq ptr %26, %29
  %or.cond = select i1 %28, i1 true, i1 %30
  br i1 %or.cond, label %.critedge, label %.thread45

31:                                               ; preds = %21
  %.pre44 = load ptr, ptr getelementptr inbounds (%struct._zend_executor_globals, ptr @executor_globals, i64 0, i32 50), align 8
  %.not31 = icmp eq ptr %.pre44, null
  br i1 %.not31, label %45, label %.thread45

.thread45:                                        ; preds = %24, %31
  %32 = phi ptr [ %.pre44, %31 ], [ %0, %24 ]
  %33 = load i8, ptr getelementptr inbounds (%struct._zend_executor_globals, ptr @executor_globals, i64 0, i32 38, i32 1), align 8
  %.not32 = icmp eq i8 %33, 0
  br i1 %.not32, label %43, label %34

34:                                               ; preds = %.thread45
  %35 = getelementptr inbounds i8, ptr %32, i64 16
  %36 = load ptr, ptr %35, align 8
  %37 = icmp eq ptr %36, @zend_ce_unwind_exit
  %38 = icmp eq ptr %36, @zend_ce_graceful_exit
  %or.cond43 = or i1 %37, %38
  br i1 %or.cond43, label %43, label %39

39:                                               ; preds = %34
  tail call void @zend_user_exception_handler() #15
  %40 = load ptr, ptr getelementptr inbounds (%struct._zend_executor_globals, ptr @executor_globals, i64 0, i32 50), align 8
  %.not33 = icmp eq ptr %40, null
  br i1 %.not33, label %.critedge, label %41

41:                                               ; preds = %39
  %42 = tail call i32 @zend_exception_error(ptr noundef nonnull %40, i32 noundef 1)
  br label %.critedge

43:                                               ; preds = %34, %.thread45
  %44 = tail call i32 @zend_exception_error(ptr noundef nonnull %32, i32 noundef 1)
  tail call void @_zend_bailout(ptr noundef nonnull @.str, i32 noundef 214) #16
  unreachable

45:                                               ; preds = %31
  tail call void (i32, ptr, ...) @zend_error_noreturn(i32 noundef 16, ptr noundef nonnull @.str.1) #16
  unreachable

46:                                               ; preds = %.thread, %21
  %47 = phi ptr [ %23, %.thread ], [ %22, %21 ]
  %48 = load ptr, ptr @zend_throw_exception_hook, align 8
  %.not34 = icmp eq ptr %48, null
  br i1 %.not34, label %.thread47, label %49

49:                                               ; preds = %46
  tail call void %48(ptr noundef %0) #15
  %.pre = load ptr, ptr getelementptr inbounds (%struct._zend_executor_globals, ptr @executor_globals, i64 0, i32 17), align 8
  %.not35 = icmp eq ptr %.pre, null
  br i1 %.not35, label %.critedge, label %.thread47

.thread47:                                        ; preds = %46, %49
  %50 = phi ptr [ %.pre, %49 ], [ %47, %46 ]
  %51 = getelementptr inbounds i8, ptr %50, i64 24
  %52 = load ptr, ptr %51, align 8
  %.not36 = icmp eq ptr %52, null
  br i1 %.not36, label %.critedge, label %53

53:                                               ; preds = %.thread47
  %54 = load i8, ptr %52, align 8
  %.not37 = icmp eq i8 %54, 1
  br i1 %.not37, label %.critedge, label %55

55:                                               ; preds = %53
  %56 = load ptr, ptr %50, align 8
  %57 = getelementptr inbounds i8, ptr %56, i64 28
  %58 = load i8, ptr %57, align 4
  %59 = icmp eq i8 %58, -107
  br i1 %59, label %.critedge, label %60

60:                                               ; preds = %55
  store ptr %56, ptr getelementptr inbounds (%struct._zend_executor_globals, ptr @executor_globals, i64 0, i32 52), align 8
  store ptr getelementptr inbounds (%struct._zend_executor_globals, ptr @executor_globals, i64 0, i32 53), ptr %50, align 8
  br label %.critedge

.critedge:                                        ; preds = %20, %53, %.thread47, %49, %55, %39, %41, %24, %13, %19, %14, %60
  ret void
}